target datalayout = "e-m:e-p270:32:32-p271:32:32-p272:64:64-i64:64-i128:128-f80:128-n8:16:32:64-S128"
target triple = "x86_64-pc-linux-gnu"

%struct.Node = type { i32 }
%struct.PlanState = type { i32, ptr, ptr, ptr, ptr, ptr, ptr, ptr, ptr, ptr, ptr, ptr, ptr, ptr, ptr, ptr, ptr, ptr, i8, ptr, ptr, ptr, ptr, ptr, i8, i8, i8, i8, i8, i8, i8, i8 }
%struct.Instrumentation = type { i8, i8, i8, i8, i8, %struct.instr_time, %struct.instr_time, double, double, %struct.BufferUsage, %struct.WalUsage, double, double, double, double, double, double, double, %struct.BufferUsage, %struct.WalUsage }
%struct.instr_time = type { i64 }
%struct.BufferUsage = type { i64, i64, i64, i64, i64, i64, i64, i64, i64, i64, %struct.instr_time, %struct.instr_time, %struct.instr_time, %struct.instr_time, %struct.instr_time, %struct.instr_time }
%struct.WalUsage = type { i64, i64, i64, i64 }

; Function Attrs: nounwind uwtable
define internal zeroext i1 @ExecShutdownNode_walker(ptr noundef %0, ptr noundef %1) #0 {
  %3 = alloca i1, align 1
  %4 = alloca ptr, align 8
  %5 = alloca ptr, align 8
  store ptr %0, ptr %4, align 8
  store ptr %1, ptr %5, align 8
  %6 = load ptr, ptr %4, align 8
  %7 = icmp eq ptr %6, null
  br i1 %7, label %8, label %9

8:                                                ; preds = %2
  store i1 false, ptr %3, align 1
  br label %62

9:                                                ; preds = %2
  call void @check_stack_depth()
  %10 = load ptr, ptr %4, align 8
  %11 = getelementptr inbounds nuw %struct.PlanState, ptr %10, i32 0, i32 5
  %12 = load ptr, ptr %11, align 8
  %13 = icmp ne ptr %12, null
  br i1 %13, label %14, label %25

14:                                               ; preds = %9
  %15 = load ptr, ptr %4, align 8
  %16 = getelementptr inbounds nuw %struct.PlanState, ptr %15, i32 0, i32 5
  %17 = load ptr, ptr %16, align 8
  %18 = getelementptr inbounds nuw %struct.Instrumentation, ptr %17, i32 0, i32 4
  %19 = load i8, ptr %18, align 4, !range !6, !noundef !7
  %20 = trunc i8 %19 to i1
  br i1 %20, label %21, label %25

21:                                               ; preds = %14
  %22 = load ptr, ptr %4, align 8
  %23 = getelementptr inbounds nuw %struct.PlanState, ptr %22, i32 0, i32 5
  %24 = load ptr, ptr %23, align 8
  call void @InstrStartNode(ptr noundef %24)
  br label %25

25:                                               ; preds = %21, %14, %9
  %26 = load ptr, ptr %4, align 8
  %27 = load ptr, ptr %5, align 8
  %28 = call zeroext i1 @planstate_tree_walker_impl(ptr noundef %26, ptr noundef @ExecShutdownNode_walker, ptr noundef %27)
  %29 = load ptr, ptr %4, align 8
  %30 = getelementptr inbounds nuw %struct.Node, ptr %29, i32 0, i32 0
  %31 = load i32, ptr %30, align 4
  switch i32 %31, label %44 [
    i32 431, label %32
    i32 417, label %34
    i32 418, label %36
    i32 432, label %38
    i32 433, label %40
    i32 422, label %42
  ]

32:                                               ; preds = %25
  %33 = load ptr, ptr %4, align 8
  call void @ExecShutdownGather(ptr noundef %33)
  br label %45

34:                                               ; preds = %25
  %35 = load ptr, ptr %4, align 8
  call void @ExecShutdownForeignScan(ptr noundef %35)
  br label %45

36:                                               ; preds = %25
  %37 = load ptr, ptr %4, align 8
  call void @ExecShutdownCustomScan(ptr noundef %37)
  br label %45

38:                                               ; preds = %25
  %39 = load ptr, ptr %4, align 8
  call void @ExecShutdownGatherMerge(ptr noundef %39)
  br label %45

40:                                               ; preds = %25
  %41 = load ptr, ptr %4, align 8
  call void @ExecShutdownHash(ptr noundef %41)
  br label %45

42:                                               ; preds = %25
  %43 = load ptr, ptr %4, align 8
  call void @ExecShutdownHashJoin(ptr noundef %43)
  br label %45

44:                                               ; preds = %25
  br label %45

45:                                               ; preds = %44, %42, %40, %38, %36, %34, %32
  %46 = load ptr, ptr %4, align 8
  %47 = getelementptr inbounds nuw %struct.PlanState, ptr %46, i32 0, i32 5
  %48 = load ptr, ptr %47, align 8
  %49 = icmp ne ptr %48, null
  br i1 %49, label %50, label %61

50:                                               ; preds = %45
  %51 = load ptr, ptr %4, align 8
  %52 = getelementptr inbounds nuw %struct.PlanState, ptr %51, i32 0, i32 5
  %53 = load ptr, ptr %52, align 8
  %54 = getelementptr inbounds nuw %struct.Instrumentation, ptr %53, i32 0, i32 4
  %55 = load i8, ptr %54, align 4, !range !6, !noundef !7
  %56 = trunc i8 %55 to i1
  br i1 %56, label %57, label %61

57:                                               ; preds = %50
  %58 = load ptr, ptr %4, align 8
  %59 = getelementptr inbounds nuw %struct.PlanState, ptr %58, i32 0, i32 5
  %60 = load ptr, ptr %59, align 8
  call void @InstrStopNode(ptr noundef %60, double noundef 0.000000e+00)
  br label %61

61:                                               ; preds = %57, %50, %45
  store i1 false, ptr %3, align 1
  br label %62

62:                                               ; preds = %61, %8
  %63 = load i1, ptr %3, align 1
  ret i1 %63
}