; Function Attrs: nounwind uwtable
define internal noundef zeroext i1 @ExecShutdownNode_walker(ptr noundef %0, ptr noundef %1) #0 {
  %3 = icmp eq ptr %0, null
  br i1 %3, label %28, label %4

4:                                                ; preds = %2
  tail call void @check_stack_depth() #6
  %5 = getelementptr inbounds nuw i8, ptr %0, i64 40
  %6 = load ptr, ptr %5, align 8
  %.not = icmp eq ptr %6, null
  br i1 %.not, label %12, label %7

7:                                                ; preds = %4
  %8 = getelementptr inbounds nuw i8, ptr %6, i64 4
  %9 = load i8, ptr %8, align 4, !range !4, !noundef !5
  %10 = trunc nuw i8 %9 to i1
  br i1 %10, label %11, label %12

11:                                               ; preds = %7
  tail call void @InstrStartNode(ptr noundef nonnull %6) #6
  br label %12

12:                                               ; preds = %11, %7, %4
  %13 = tail call zeroext i1 @planstate_tree_walker_impl(ptr noundef nonnull %0, ptr noundef nonnull @ExecShutdownNode_walker, ptr noundef %1) #6
  %14 = load i32, ptr %0, align 4
  switch i32 %14, label %21 [
    i32 431, label %15
    i32 417, label %16
    i32 418, label %17
    i32 432, label %18
    i32 433, label %19
    i32 422, label %20
  ]

15:                                               ; preds = %12
  tail call void @ExecShutdownGather(ptr noundef nonnull %0) #6
  br label %21

16:                                               ; preds = %12
  tail call void @ExecShutdownForeignScan(ptr noundef nonnull %0) #6
  br label %21

17:                                               ; preds = %12
  tail call void @ExecShutdownCustomScan(ptr noundef nonnull %0) #6
  br label %21

18:                                               ; preds = %12
  tail call void @ExecShutdownGatherMerge(ptr noundef nonnull %0) #6
  br label %21

19:                                               ; preds = %12
  tail call void @ExecShutdownHash(ptr noundef nonnull %0) #6
  br label %21

20:                                               ; preds = %12
  tail call void @ExecShutdownHashJoin(ptr noundef nonnull %0) #6
  br label %21

21:                                               ; preds = %12, %20, %19, %18, %17, %16, %15
  %22 = load ptr, ptr %5, align 8
  %.not19 = icmp eq ptr %22, null
  br i1 %.not19, label %28, label %23

23:                                               ; preds = %21
  %24 = getelementptr inbounds nuw i8, ptr %22, i64 4
  %25 = load i8, ptr %24, align 4, !range !4, !noundef !5
  %26 = trunc nuw i8 %25 to i1
  br i1 %26, label %27, label %28

27:                                               ; preds = %23
  tail call void @InstrStopNode(ptr noundef nonnull %22, double noundef 0.000000e+00) #6
  br label %28

28:                                               ; preds = %21, %23, %27, %2
  ret i1 false
}